; Function Attrs: nofree norecurse nosync nounwind memory(read, inaccessiblemem: none) uwtable
define i32 @Ivy_TableCountEntries(ptr noundef readonly captures(none) %0) local_unnamed_addr #0 {
  %2 = getelementptr inbounds nuw i8, ptr %0, i64 168
  %3 = load i32, ptr %2, align 8, !tbaa !12
  %4 = icmp sgt i32 %3, 0
  br i1 %4, label %.lr.ph, label %._crit_edge

.lr.ph:                                           ; preds = %1
  %5 = getelementptr inbounds nuw i8, ptr %0, i64 160
  %6 = load ptr, ptr %5, align 8, !tbaa !20
  %wide.trip.count = zext nneg i32 %3 to i64
  br label %7

7:                                                ; preds = %.lr.ph, %7
  %indvars.iv = phi i64 [ 0, %.lr.ph ], [ %indvars.iv.next, %7 ]
  %.08 = phi i32 [ 0, %.lr.ph ], [ %12, %7 ]
  %8 = getelementptr inbounds nuw i32, ptr %6, i64 %indvars.iv
  %9 = load i32, ptr %8, align 4, !tbaa !21
  %10 = icmp ne i32 %9, 0
  %11 = zext i1 %10 to i32
  %12 = add nuw nsw i32 %.08, %11
  %indvars.iv.next = add nuw nsw i64 %indvars.iv, 1
  %exitcond.not = icmp eq i64 %indvars.iv.next, %wide.trip.count
  br i1 %exitcond.not, label %._crit_edge, label %7, !llvm.loop !33

._crit_edge:                                      ; preds = %7, %1
  %.0.lcssa = phi i32 [ 0, %1 ], [ %12, %7 ]
  ret i32 %.0.lcssa
}